; ModuleID = 'source-C-CXX/4/708.c'
source_filename = "source-C-CXX/4/708.c"
target datalayout = "e-m:e-p270:32:32-p271:32:32-p272:64:64-i64:64-f80:128-n8:16:32:64-S128"
target triple = "x86_64-pc-linux-gnu"

@.str = private unnamed_addr constant [4 x i8] c"%lf\00", align 1
@.str.1 = private unnamed_addr constant [3 x i8] c"%s\00", align 1
@.str.2 = private unnamed_addr constant [6 x i8] c"error\00", align 1
@.str.3 = private unnamed_addr constant [4 x i8] c"yes\00", align 1
@.str.4 = private unnamed_addr constant [3 x i8] c"no\00", align 1

; Function Attrs: nofree nounwind sspstrong uwtable
define dso_local i32 @main() local_unnamed_addr #0 {
  %1 = alloca [501 x i8], align 16
  %2 = alloca [501 x i8], align 16
  %3 = alloca double, align 8
  %4 = getelementptr inbounds [501 x i8], [501 x i8]* %1, i64 0, i64 0
  call void @llvm.lifetime.start.p0i8(i64 501, i8* nonnull %4) #3
  %5 = getelementptr inbounds [501 x i8], [501 x i8]* %2, i64 0, i64 0
  call void @llvm.lifetime.start.p0i8(i64 501, i8* nonnull %5) #3
  %6 = bitcast double* %3 to i8*
  call void @llvm.lifetime.start.p0i8(i64 8, i8* nonnull %6) #3
  %7 = call i32 (i8*, ...) @__isoc99_scanf(i8* getelementptr inbounds ([4 x i8], [4 x i8]* @.str, i64 0, i64 0), double* nonnull %3)
  %8 = call i32 (i8*, ...) @__isoc99_scanf(i8* getelementptr inbounds ([3 x i8], [3 x i8]* @.str.1, i64 0, i64 0), i8* nonnull %4)
  %9 = call i32 (i8*, ...) @__isoc99_scanf(i8* getelementptr inbounds ([3 x i8], [3 x i8]* @.str.1, i64 0, i64 0), i8* nonnull %5)
  %10 = load i8, i8* %4, align 16, !tbaa !5
  %11 = icmp eq i8 %10, 0
  br i1 %11, label %39, label %14

12:                                               ; preds = %14
  %13 = sitofp i32 %17 to double
  br i1 %11, label %39, label %22

14:                                               ; preds = %0, %14
  %15 = phi i64 [ %18, %14 ], [ 0, %0 ]
  %16 = phi i32 [ %17, %14 ], [ 0, %0 ]
  %17 = add nuw nsw i32 %16, 1
  %18 = add nuw nsw i64 %15, 1
  %19 = getelementptr inbounds [501 x i8], [501 x i8]* %1, i64 0, i64 %18
  %20 = load i8, i8* %19, align 1, !tbaa !5
  %21 = icmp eq i8 %20, 0
  br i1 %21, label %12, label %14, !llvm.loop !8

22:                                               ; preds = %12, %32
  %23 = phi i64 [ %33, %32 ], [ 0, %12 ]
  %24 = phi i8 [ %35, %32 ], [ %10, %12 ]
  %25 = phi i32 [ %30, %32 ], [ 0, %12 ]
  %26 = getelementptr inbounds [501 x i8], [501 x i8]* %2, i64 0, i64 %23
  %27 = load i8, i8* %26, align 1, !tbaa !5
  %28 = icmp eq i8 %27, %24
  %29 = zext i1 %28 to i32
  %30 = add nuw nsw i32 %25, %29
  switch i8 %24, label %51 [
    i8 65, label %31
    i8 84, label %31
    i8 67, label %31
    i8 71, label %31
  ]

31:                                               ; preds = %22, %22, %22, %22
  switch i8 %27, label %51 [
    i8 65, label %32
    i8 84, label %32
    i8 67, label %32
    i8 71, label %32
  ]

32:                                               ; preds = %31, %31, %31, %31
  %33 = add nuw i64 %23, 1
  %34 = getelementptr inbounds [501 x i8], [501 x i8]* %1, i64 0, i64 %33
  %35 = load i8, i8* %34, align 1, !tbaa !5
  %36 = icmp eq i8 %35, 0
  br i1 %36, label %37, label %22, !llvm.loop !10

37:                                               ; preds = %32
  %38 = sitofp i32 %30 to double
  br label %39

39:                                               ; preds = %0, %37, %12
  %40 = phi double [ %13, %12 ], [ %13, %37 ], [ 0.000000e+00, %0 ]
  %41 = phi double [ 0.000000e+00, %12 ], [ %38, %37 ], [ 0.000000e+00, %0 ]
  %42 = fdiv double %41, %40
  %43 = load double, double* %3, align 8, !tbaa !11
  %44 = fcmp ogt double %42, %43
  br i1 %44, label %45, label %48

45:                                               ; preds = %39
  %46 = call i32 (i8*, ...) @printf(i8* nonnull dereferenceable(1) getelementptr inbounds ([4 x i8], [4 x i8]* @.str.3, i64 0, i64 0))
  %47 = load double, double* %3, align 8, !tbaa !11
  br label %48

48:                                               ; preds = %45, %39
  %49 = phi double [ %47, %45 ], [ %43, %39 ]
  %50 = fcmp ugt double %42, %49
  br i1 %50, label %54, label %51

51:                                               ; preds = %22, %31, %48
  %52 = phi i8* [ getelementptr inbounds ([3 x i8], [3 x i8]* @.str.4, i64 0, i64 0), %48 ], [ getelementptr inbounds ([6 x i8], [6 x i8]* @.str.2, i64 0, i64 0), %31 ], [ getelementptr inbounds ([6 x i8], [6 x i8]* @.str.2, i64 0, i64 0), %22 ]
  %53 = call i32 (i8*, ...) @printf(i8* nonnull dereferenceable(1) %52)
  br label %54

54:                                               ; preds = %51, %48
  call void @llvm.lifetime.end.p0i8(i64 8, i8* nonnull %6) #3
  call void @llvm.lifetime.end.p0i8(i64 501, i8* nonnull %5) #3
  call void @llvm.lifetime.end.p0i8(i64 501, i8* nonnull %4) #3
  ret i32 0
}

; Function Attrs: argmemonly mustprogress nofree nosync nounwind willreturn
declare void @llvm.lifetime.start.p0i8(i64 immarg, i8* nocapture) #1

; Function Attrs: nofree nounwind
declare noundef i32 @__isoc99_scanf(i8* nocapture noundef readonly, ...) local_unnamed_addr #2

; Function Attrs: nofree nounwind
declare noundef i32 @printf(i8* nocapture noundef readonly, ...) local_unnamed_addr #2

; Function Attrs: argmemonly mustprogress nofree nosync nounwind willreturn
declare void @llvm.lifetime.end.p0i8(i64 immarg, i8* nocapture) #1


!llvm.module.flags = !{!0, !1, !2, !3}
!llvm.ident = !{!4}

!0 = !{i32 1, !"wchar_size", i32 4}
!1 = !{i32 7, !"PIC Level", i32 2}
!2 = !{i32 7, !"PIE Level", i32 2}
!3 = !{i32 7, !"uwtable", i32 1}
!4 = !{!"clang version 13.0.0"}
!5 = !{!6, !6, i64 0}
!6 = !{!"omnipotent char", !7, i64 0}
!7 = !{!"Simple C/C++ TBAA"}
!8 = distinct !{!8, !9}
!9 = !{!"llvm.loop.mustprogress"}
!10 = distinct !{!10, !9}
!11 = !{!12, !12, i64 0}
!12 = !{!"double", !6, i64 0}
